target datalayout = "e-m:e-p270:32:32-p271:32:32-p272:64:64-i64:64-i128:128-f80:128-n8:16:32:64-S128"
target triple = "x86_64-pc-linux-gnu"

%struct.SDL_GPUDevice = type { ptr, ptr, ptr, ptr, ptr, ptr, ptr, ptr, ptr, ptr, ptr, ptr, ptr, ptr, ptr, ptr, ptr, ptr, ptr, ptr, ptr, ptr, ptr, ptr, ptr, ptr, ptr, ptr, ptr, ptr, ptr, ptr, ptr, ptr, ptr, ptr, ptr, ptr, ptr, ptr, ptr, ptr, ptr, ptr, ptr, ptr, ptr, ptr, ptr, ptr, ptr, ptr, ptr, ptr, ptr, ptr, ptr, ptr, ptr, ptr, ptr, ptr, ptr, ptr, ptr, ptr, ptr, ptr, ptr, ptr, ptr, ptr, ptr, ptr, ptr, ptr, ptr, ptr, ptr, ptr, ptr, ptr, ptr, ptr, ptr, i32, i8 }
%struct.CommandBufferCommonHeader = type { ptr, %struct.RenderPass, i8, %struct.Pass, i8, %struct.Pass, i8, i8, i8 }
%struct.RenderPass = type { ptr, i8, [4 x ptr], i32, ptr }
%struct.Pass = type { ptr, i8 }

@.str.4 = private unnamed_addr constant [26 x i8] c"Parameter '%s' is invalid\00", align 1
@.str.8 = private unnamed_addr constant [103 x i8] c"generated/home/dtcxzyw/WorkSpace/Projects/compilers/llvm-opt-benchmark/bench/sdl/SDL/src/gpu/SDL_gpu.c\00", align 1
@.str.179 = private unnamed_addr constant [15 x i8] c"command_buffer\00", align 1
@SDL_BeginGPUCopyPass_REAL.sdl_assert_data = internal global { i8, [3 x i8], i32, ptr, ptr, i32, [4 x i8], ptr, ptr } { i8 0, [3 x i8] zeroinitializer, i32 0, ptr @.str.181, ptr null, i32 0, [4 x i8] zeroinitializer, ptr null, ptr null }, align 8
@__func__.SDL_BeginGPUCopyPass_REAL = private unnamed_addr constant [26 x i8] c"SDL_BeginGPUCopyPass_REAL\00", align 1
@SDL_BeginGPUCopyPass_REAL.sdl_assert_data.284 = internal global { i8, [3 x i8], i32, ptr, ptr, i32, [4 x i8], ptr, ptr } { i8 0, [3 x i8] zeroinitializer, i32 0, ptr @.str.285, ptr null, i32 0, [4 x i8] zeroinitializer, ptr null, ptr null }, align 8

; Function Attrs: nounwind uwtable
define hidden ptr @SDL_BeginGPUCopyPass_REAL(ptr noundef %0) #0 {
  %2 = alloca ptr, align 8
  %3 = alloca ptr, align 8
  %4 = alloca ptr, align 8
  %5 = alloca i32, align 4
  %6 = alloca i32, align 4
  %7 = alloca i32, align 4
  store ptr %0, ptr %3, align 8
  call void @llvm.lifetime.start.p0(i64 8, ptr %4) #6
  %8 = load ptr, ptr %3, align 8
  %9 = icmp eq ptr %8, null
  br i1 %9, label %10, label %12

10:                                               ; preds = %1
  %11 = call zeroext i1 (ptr, ...) @SDL_SetError_REAL(ptr noundef @.str.4, ptr noundef @.str.179)
  store ptr null, ptr %2, align 8
  store i32 1, ptr %5, align 4
  br label %94

12:                                               ; preds = %1
  %13 = load ptr, ptr %3, align 8
  %14 = getelementptr inbounds nuw %struct.CommandBufferCommonHeader, ptr %13, i32 0, i32 0
  %15 = load ptr, ptr %14, align 8
  %16 = getelementptr inbounds nuw %struct.SDL_GPUDevice, ptr %15, i32 0, i32 86
  %17 = load i8, ptr %16, align 4, !range !5, !noundef !6
  %18 = trunc i8 %17 to i1
  br i1 %18, label %19, label %81

19:                                               ; preds = %12
  %20 = load ptr, ptr %3, align 8
  %21 = getelementptr inbounds nuw %struct.CommandBufferCommonHeader, ptr %20, i32 0, i32 7
  %22 = load i8, ptr %21, align 1, !range !5, !noundef !6
  %23 = trunc i8 %22 to i1
  br i1 %23, label %24, label %43

24:                                               ; preds = %19
  br label %25

25:                                               ; preds = %24
  br label %26

26:                                               ; preds = %38, %25
  br label %27

27:                                               ; preds = %26
  call void @llvm.lifetime.start.p0(i64 4, ptr %6) #6
  %28 = call i32 @SDL_ReportAssertion_REAL(ptr noundef @SDL_BeginGPUCopyPass_REAL.sdl_assert_data, ptr noundef @__func__.SDL_BeginGPUCopyPass_REAL, ptr noundef @.str.8, i32 noundef 2436)
  store i32 %28, ptr %6, align 4
  %29 = load i32, ptr %6, align 4
  %30 = icmp eq i32 %29, 0
  br i1 %30, label %31, label %32

31:                                               ; preds = %27
  store i32 4, ptr %5, align 4
  br label %38

32:                                               ; preds = %27
  %33 = load i32, ptr %6, align 4
  %34 = icmp eq i32 %33, 1
  br i1 %34, label %35, label %36

35:                                               ; preds = %32
  call void @llvm.debugtrap()
  br label %36

36:                                               ; preds = %35, %32
  br label %37

37:                                               ; preds = %36
  store i32 5, ptr %5, align 4
  br label %38

38:                                               ; preds = %37, %31
  call void @llvm.lifetime.end.p0(i64 4, ptr %6) #6
  %39 = load i32, ptr %5, align 4
  switch i32 %39, label %96 [
    i32 4, label %26
    i32 5, label %40
  ]

40:                                               ; preds = %38
  br label %41

41:                                               ; preds = %40
  br label %42

42:                                               ; preds = %41
  store ptr null, ptr %2, align 8
  store i32 1, ptr %5, align 4
  br label %94

43:                                               ; preds = %19
  %44 = load ptr, ptr %3, align 8
  %45 = getelementptr inbounds nuw %struct.CommandBufferCommonHeader, ptr %44, i32 0, i32 1
  %46 = getelementptr inbounds nuw %struct.RenderPass, ptr %45, i32 0, i32 1
  %47 = load i8, ptr %46, align 8, !range !5, !noundef !6
  %48 = trunc i8 %47 to i1
  br i1 %48, label %61, label %49

49:                                               ; preds = %43
  %50 = load ptr, ptr %3, align 8
  %51 = getelementptr inbounds nuw %struct.CommandBufferCommonHeader, ptr %50, i32 0, i32 3
  %52 = getelementptr inbounds nuw %struct.Pass, ptr %51, i32 0, i32 1
  %53 = load i8, ptr %52, align 8, !range !5, !noundef !6
  %54 = trunc i8 %53 to i1
  br i1 %54, label %61, label %55

55:                                               ; preds = %49
  %56 = load ptr, ptr %3, align 8
  %57 = getelementptr inbounds nuw %struct.CommandBufferCommonHeader, ptr %56, i32 0, i32 5
  %58 = getelementptr inbounds nuw %struct.Pass, ptr %57, i32 0, i32 1
  %59 = load i8, ptr %58, align 8, !range !5, !noundef !6
  %60 = trunc i8 %59 to i1
  br i1 %60, label %61, label %80

61:                                               ; preds = %55, %49, %43
  br label %62

62:                                               ; preds = %61
  br label %63

63:                                               ; preds = %75, %62
  br label %64

64:                                               ; preds = %63
  call void @llvm.lifetime.start.p0(i64 4, ptr %7) #6
  %65 = call i32 @SDL_ReportAssertion_REAL(ptr noundef @SDL_BeginGPUCopyPass_REAL.sdl_assert_data.284, ptr noundef @__func__.SDL_BeginGPUCopyPass_REAL, ptr noundef @.str.8, i32 noundef 2437)
  store i32 %65, ptr %7, align 4
  %66 = load i32, ptr %7, align 4
  %67 = icmp eq i32 %66, 0
  br i1 %67, label %68, label %69

68:                                               ; preds = %64
  store i32 8, ptr %5, align 4
  br label %75

69:                                               ; preds = %64
  %70 = load i32, ptr %7, align 4
  %71 = icmp eq i32 %70, 1
  br i1 %71, label %72, label %73

72:                                               ; preds = %69
  call void @llvm.debugtrap()
  br label %73

73:                                               ; preds = %72, %69
  br label %74

74:                                               ; preds = %73
  store i32 9, ptr %5, align 4
  br label %75

75:                                               ; preds = %74, %68
  call void @llvm.lifetime.end.p0(i64 4, ptr %7) #6
  %76 = load i32, ptr %5, align 4
  switch i32 %76, label %96 [
    i32 8, label %63
    i32 9, label %77
  ]

77:                                               ; preds = %75
  br label %78

78:                                               ; preds = %77
  br label %79

79:                                               ; preds = %78
  store ptr null, ptr %2, align 8
  store i32 1, ptr %5, align 4
  br label %94

80:                                               ; preds = %55
  br label %81

81:                                               ; preds = %80, %12
  %82 = load ptr, ptr %3, align 8
  %83 = getelementptr inbounds nuw %struct.CommandBufferCommonHeader, ptr %82, i32 0, i32 0
  %84 = load ptr, ptr %83, align 8
  %85 = getelementptr inbounds nuw %struct.SDL_GPUDevice, ptr %84, i32 0, i32 53
  %86 = load ptr, ptr %85, align 8
  %87 = load ptr, ptr %3, align 8
  call void %86(ptr noundef %87)
  %88 = load ptr, ptr %3, align 8
  store ptr %88, ptr %4, align 8
  %89 = load ptr, ptr %4, align 8
  %90 = getelementptr inbounds nuw %struct.CommandBufferCommonHeader, ptr %89, i32 0, i32 5
  %91 = getelementptr inbounds nuw %struct.Pass, ptr %90, i32 0, i32 1
  store i8 1, ptr %91, align 8
  %92 = load ptr, ptr %4, align 8
  %93 = getelementptr inbounds nuw %struct.CommandBufferCommonHeader, ptr %92, i32 0, i32 5
  store ptr %93, ptr %2, align 8
  store i32 1, ptr %5, align 4
  br label %94

94:                                               ; preds = %81, %79, %42, %10
  call void @llvm.lifetime.end.p0(i64 8, ptr %4) #6
  %95 = load ptr, ptr %2, align 8
  ret ptr %95

96:                                               ; preds = %75, %38
  unreachable
}