; Function Attrs: nounwind uwtable
define hidden ptr @SDL_BeginGPUCopyPass_REAL(ptr noundef %0) local_unnamed_addr #0 {
  %2 = icmp eq ptr %0, null
  br i1 %2, label %3, label %5

3:                                                ; preds = %1
  %4 = tail call zeroext i1 (ptr, ...) @SDL_SetError_REAL(ptr noundef nonnull @.str.4, ptr noundef nonnull @.str.179) #7
  br label %.thread

5:                                                ; preds = %1
  %6 = load ptr, ptr %0, align 8
  %7 = getelementptr inbounds nuw i8, ptr %6, i64 684
  %8 = load i8, ptr %7, align 4, !range !5, !noundef !6
  %9 = trunc nuw i8 %8 to i1
  br i1 %9, label %10, label %31

10:                                               ; preds = %5
  %11 = getelementptr inbounds nuw i8, ptr %0, i64 121
  %12 = load i8, ptr %11, align 1, !range !5, !noundef !6
  %13 = trunc nuw i8 %12 to i1
  br i1 %13, label %.preheader, label %16

.preheader:                                       ; preds = %10, %.preheader
  %14 = tail call i32 @SDL_ReportAssertion_REAL(ptr noundef nonnull @SDL_BeginGPUCopyPass_REAL.sdl_assert_data, ptr noundef nonnull @__func__.SDL_BeginGPUCopyPass_REAL, ptr noundef nonnull @.str.8, i32 noundef 2436) #7
  switch i32 %14, label %.thread [
    i32 0, label %.preheader
    i32 1, label %15
  ]

15:                                               ; preds = %.preheader
  tail call void @llvm.debugtrap()
  br label %.thread

16:                                               ; preds = %10
  %17 = getelementptr inbounds nuw i8, ptr %0, i64 16
  %18 = load i8, ptr %17, align 8, !range !5, !noundef !6
  %19 = trunc nuw i8 %18 to i1
  br i1 %19, label %.preheader34, label %20

20:                                               ; preds = %16
  %21 = getelementptr inbounds nuw i8, ptr %0, i64 88
  %22 = load i8, ptr %21, align 8, !range !5, !noundef !6
  %23 = trunc nuw i8 %22 to i1
  br i1 %23, label %.preheader34, label %24

24:                                               ; preds = %20
  %25 = getelementptr inbounds nuw i8, ptr %0, i64 112
  %26 = load i8, ptr %25, align 8, !range !5, !noundef !6
  %27 = trunc nuw i8 %26 to i1
  br i1 %27, label %.preheader34, label %31

.preheader34:                                     ; preds = %16, %20, %24
  br label %28

28:                                               ; preds = %.preheader34, %28
  %29 = tail call i32 @SDL_ReportAssertion_REAL(ptr noundef nonnull @SDL_BeginGPUCopyPass_REAL.sdl_assert_data.284, ptr noundef nonnull @__func__.SDL_BeginGPUCopyPass_REAL, ptr noundef nonnull @.str.8, i32 noundef 2437) #7
  switch i32 %29, label %.thread [
    i32 0, label %28
    i32 1, label %30
  ]

30:                                               ; preds = %28
  tail call void @llvm.debugtrap()
  br label %.thread

31:                                               ; preds = %24, %5
  %32 = getelementptr inbounds nuw i8, ptr %6, i64 424
  %33 = load ptr, ptr %32, align 8
  tail call void %33(ptr noundef nonnull %0) #7
  %34 = getelementptr inbounds nuw i8, ptr %0, i64 104
  %35 = getelementptr inbounds nuw i8, ptr %0, i64 112
  store i8 1, ptr %35, align 8
  br label %.thread

.thread:                                          ; preds = %28, %.preheader, %30, %15, %31, %3
  %.0 = phi ptr [ null, %3 ], [ %34, %31 ], [ null, %15 ], [ null, %30 ], [ null, %.preheader ], [ null, %28 ]
  ret ptr %.0
}